target datalayout = "e-m:e-p270:32:32-p271:32:32-p272:64:64-i64:64-i128:128-f80:128-n8:16:32:64-S128"
target triple = "x86_64-pc-linux-gnu"

@hf_s5066dts_eow_hdr_drc_request_data_rate = internal global i32 0, align 4
@hf_s5066dts_eow_hdr_drc_request_interleaver_length = internal global i32 0, align 4
@hf_s5066dts_management_unused = internal global i32 0, align 4
@hf_s5066dts_management_extended_message_flag = internal global i32 0, align 4
@hf_s5066dts_management_message = internal global i32 0, align 4
@hf_s5066dts_management_ack = internal global i32 0, align 4
@hf_s5066dts_management_management_frame_id = internal global i32 0, align 4
@hf_s5066dts_management_extended_message = internal global i32 0, align 4
@hf_s5066dts_management_extended_message_hftrp_payload_size = internal global i32 0, align 4
@hf_s5066dts_management_extended_message_hftrp_ra = internal global i32 0, align 4
@hf_s5066dts_management_extended_message_hftrp_seq_id = internal global i32 0, align 4
@hf_s5066dts_management_extended_message_hftrp_gen_seq_id = internal global i32 0, align 4
@hf_s5066dts_management_extended_message_hftrp_new_successor_id = internal global i32 0, align 4
@hf_s5066dts_management_extended_message_hftrp_number_of_nodes = internal global i32 0, align 4
@ett_s5066dts_hftrp_token = internal global i32 0, align 4
@.str.260 = private unnamed_addr constant [20 x i8] c"UNKNOWN_HFTRP_TOKEN\00", align 1
@.str.279 = private unnamed_addr constant [17 x i8] c"HFTRP Token (%s)\00", align 1

; Function Attrs: null_pointer_is_valid sspstrong uwtable
define internal i32 @dissect_s5066dts_management(ptr noundef %0, i32 noundef %1, ptr noundef %2, i32 noundef %3) #0 {
  %5 = alloca ptr, align 8
  %6 = alloca i32, align 4
  %7 = alloca ptr, align 8
  %8 = alloca i32, align 4
  %9 = alloca i8, align 1
  %10 = alloca ptr, align 8
  %11 = alloca i32, align 4
  %12 = alloca i32, align 4
  store ptr %0, ptr %5, align 8
  store i32 %1, ptr %6, align 4
  store ptr %2, ptr %7, align 8
  store i32 %3, ptr %8, align 4
  call void @llvm.lifetime.start.p0(i64 1, ptr %9) #4
  call void @llvm.lifetime.start.p0(i64 8, ptr %10) #4
  store ptr null, ptr %10, align 8
  call void @llvm.lifetime.start.p0(i64 4, ptr %11) #4
  call void @llvm.lifetime.start.p0(i64 4, ptr %12) #4
  %13 = load ptr, ptr %5, align 8
  %14 = load i32, ptr %6, align 4
  %15 = call zeroext i8 @tvb_get_uint8(ptr noundef %13, i32 noundef %14)
  %16 = zext i8 %15 to i32
  %17 = and i32 %16, 15
  store i32 %17, ptr %11, align 4
  %18 = load ptr, ptr %5, align 8
  %19 = call zeroext i8 @tvb_get_uint8(ptr noundef %18, i32 noundef 3)
  store i8 %19, ptr %9, align 1
  %20 = load i32, ptr %8, align 4
  %21 = sub i32 %20, 8
  store i32 %21, ptr %12, align 4
  %22 = load ptr, ptr %7, align 8
  %23 = load i32, ptr @hf_s5066dts_management_unused, align 4
  %24 = load ptr, ptr %5, align 8
  %25 = load i32, ptr %6, align 4
  %26 = call ptr @proto_tree_add_item(ptr noundef %22, i32 noundef %23, ptr noundef %24, i32 noundef %25, i32 noundef 1, i32 noundef 0)
  %27 = load ptr, ptr %7, align 8
  %28 = load i32, ptr @hf_s5066dts_management_extended_message_flag, align 4
  %29 = load ptr, ptr %5, align 8
  %30 = load i32, ptr %6, align 4
  %31 = call ptr @proto_tree_add_item(ptr noundef %27, i32 noundef %28, ptr noundef %29, i32 noundef %30, i32 noundef 1, i32 noundef 0)
  %32 = load ptr, ptr %7, align 8
  %33 = load i32, ptr @hf_s5066dts_management_message, align 4
  %34 = load ptr, ptr %5, align 8
  %35 = load i32, ptr %6, align 4
  %36 = call ptr @proto_tree_add_item(ptr noundef %32, i32 noundef %33, ptr noundef %34, i32 noundef %35, i32 noundef 1, i32 noundef 0)
  %37 = load ptr, ptr %7, align 8
  %38 = load i32, ptr @hf_s5066dts_management_ack, align 4
  %39 = load ptr, ptr %5, align 8
  %40 = load i32, ptr %6, align 4
  %41 = call ptr @proto_tree_add_item(ptr noundef %37, i32 noundef %38, ptr noundef %39, i32 noundef %40, i32 noundef 1, i32 noundef 0)
  %42 = load i32, ptr %6, align 4
  %43 = add i32 %42, 1
  store i32 %43, ptr %6, align 4
  %44 = load ptr, ptr %7, align 8
  %45 = load i32, ptr @hf_s5066dts_management_management_frame_id, align 4
  %46 = load ptr, ptr %5, align 8
  %47 = load i32, ptr %6, align 4
  %48 = call ptr @proto_tree_add_item(ptr noundef %44, i32 noundef %45, ptr noundef %46, i32 noundef %47, i32 noundef 1, i32 noundef 0)
  %49 = load i32, ptr %6, align 4
  %50 = add i32 %49, 1
  store i32 %50, ptr %6, align 4
  %51 = load i32, ptr %11, align 4
  %52 = icmp eq i32 %51, 7
  br i1 %52, label %53, label %68

53:                                               ; preds = %4
  %54 = load ptr, ptr %7, align 8
  %55 = load i32, ptr @hf_s5066dts_eow_hdr_drc_request_data_rate, align 4
  %56 = load ptr, ptr %5, align 8
  %57 = load i32, ptr %6, align 4
  %58 = call ptr @proto_tree_add_item(ptr noundef %54, i32 noundef %55, ptr noundef %56, i32 noundef %57, i32 noundef 4, i32 noundef 0)
  %59 = load i32, ptr %6, align 4
  %60 = add i32 %59, 4
  store i32 %60, ptr %6, align 4
  %61 = load ptr, ptr %7, align 8
  %62 = load i32, ptr @hf_s5066dts_eow_hdr_drc_request_interleaver_length, align 4
  %63 = load ptr, ptr %5, align 8
  %64 = load i32, ptr %6, align 4
  %65 = call ptr @proto_tree_add_item(ptr noundef %61, i32 noundef %62, ptr noundef %63, i32 noundef %64, i32 noundef 2, i32 noundef 0)
  %66 = load i32, ptr %6, align 4
  %67 = add i32 %66, 2
  store i32 %67, ptr %6, align 4
  br label %138

68:                                               ; preds = %4
  %69 = load i32, ptr %12, align 4
  %70 = icmp ugt i32 %69, 0
  br i1 %70, label %71, label %137

71:                                               ; preds = %68
  %72 = load i32, ptr %11, align 4
  %73 = icmp eq i32 %72, 15
  br i1 %73, label %74, label %126

74:                                               ; preds = %71
  %75 = load ptr, ptr %7, align 8
  %76 = load ptr, ptr %5, align 8
  %77 = load i32, ptr %6, align 4
  %78 = load i32, ptr %12, align 4
  %79 = load i32, ptr @ett_s5066dts_hftrp_token, align 4
  %80 = load i8, ptr %9, align 1
  %81 = zext i8 %80 to i32
  %82 = call ptr @val_to_str_const(i32 noundef %81, ptr noundef @s5066dts_eow_hftrp_frame_control, ptr noundef @.str.260)
  %83 = call ptr (ptr, ptr, i32, i32, i32, ptr, ptr, ...) @proto_tree_add_subtree_format(ptr noundef %75, ptr noundef %76, i32 noundef %77, i32 noundef %78, i32 noundef %79, ptr noundef null, ptr noundef @.str.279, ptr noundef %82)
  store ptr %83, ptr %10, align 8
  %84 = load ptr, ptr %10, align 8
  %85 = load i32, ptr @hf_s5066dts_management_extended_message_hftrp_payload_size, align 4
  %86 = load ptr, ptr %5, align 8
  %87 = load i32, ptr %6, align 4
  %88 = call ptr @proto_tree_add_item(ptr noundef %84, i32 noundef %85, ptr noundef %86, i32 noundef %87, i32 noundef 2, i32 noundef 0)
  %89 = load i32, ptr %6, align 4
  %90 = add i32 %89, 2
  store i32 %90, ptr %6, align 4
  %91 = load ptr, ptr %10, align 8
  %92 = load i32, ptr @hf_s5066dts_management_extended_message_hftrp_ra, align 4
  %93 = load ptr, ptr %5, align 8
  %94 = load i32, ptr %6, align 4
  %95 = call ptr @proto_tree_add_item(ptr noundef %91, i32 noundef %92, ptr noundef %93, i32 noundef %94, i32 noundef 4, i32 noundef 0)
  %96 = load i32, ptr %6, align 4
  %97 = add i32 %96, 4
  store i32 %97, ptr %6, align 4
  %98 = load ptr, ptr %10, align 8
  %99 = load i32, ptr @hf_s5066dts_management_extended_message_hftrp_seq_id, align 4
  %100 = load ptr, ptr %5, align 8
  %101 = load i32, ptr %6, align 4
  %102 = call ptr @proto_tree_add_item(ptr noundef %98, i32 noundef %99, ptr noundef %100, i32 noundef %101, i32 noundef 4, i32 noundef 0)
  %103 = load i32, ptr %6, align 4
  %104 = add i32 %103, 4
  store i32 %104, ptr %6, align 4
  %105 = load ptr, ptr %10, align 8
  %106 = load i32, ptr @hf_s5066dts_management_extended_message_hftrp_gen_seq_id, align 4
  %107 = load ptr, ptr %5, align 8
  %108 = load i32, ptr %6, align 4
  %109 = call ptr @proto_tree_add_item(ptr noundef %105, i32 noundef %106, ptr noundef %107, i32 noundef %108, i32 noundef 4, i32 noundef 0)
  %110 = load i32, ptr %6, align 4
  %111 = add i32 %110, 4
  store i32 %111, ptr %6, align 4
  %112 = load ptr, ptr %10, align 8
  %113 = load i32, ptr @hf_s5066dts_management_extended_message_hftrp_new_successor_id, align 4
  %114 = load ptr, ptr %5, align 8
  %115 = load i32, ptr %6, align 4
  %116 = call ptr @proto_tree_add_item(ptr noundef %112, i32 noundef %113, ptr noundef %114, i32 noundef %115, i32 noundef 4, i32 noundef 0)
  %117 = load i32, ptr %6, align 4
  %118 = add i32 %117, 4
  store i32 %118, ptr %6, align 4
  %119 = load ptr, ptr %10, align 8
  %120 = load i32, ptr @hf_s5066dts_management_extended_message_hftrp_number_of_nodes, align 4
  %121 = load ptr, ptr %5, align 8
  %122 = load i32, ptr %6, align 4
  %123 = call ptr @proto_tree_add_item(ptr noundef %119, i32 noundef %120, ptr noundef %121, i32 noundef %122, i32 noundef 2, i32 noundef 0)
  %124 = load i32, ptr %6, align 4
  %125 = add i32 %124, 2
  store i32 %125, ptr %6, align 4
  br label %136

126:                                              ; preds = %71
  %127 = load ptr, ptr %7, align 8
  %128 = load i32, ptr @hf_s5066dts_management_extended_message, align 4
  %129 = load ptr, ptr %5, align 8
  %130 = load i32, ptr %6, align 4
  %131 = load i32, ptr %12, align 4
  %132 = call ptr @proto_tree_add_item(ptr noundef %127, i32 noundef %128, ptr noundef %129, i32 noundef %130, i32 noundef %131, i32 noundef 0)
  %133 = load i32, ptr %12, align 4
  %134 = load i32, ptr %6, align 4
  %135 = add i32 %134, %133
  store i32 %135, ptr %6, align 4
  br label %136

136:                                              ; preds = %126, %74
  br label %137

137:                                              ; preds = %136, %68
  br label %138

138:                                              ; preds = %137, %53
  %139 = load i32, ptr %6, align 4
  call void @llvm.lifetime.end.p0(i64 4, ptr %12) #4
  call void @llvm.lifetime.end.p0(i64 4, ptr %11) #4
  call void @llvm.lifetime.end.p0(i64 8, ptr %10) #4
  call void @llvm.lifetime.end.p0(i64 1, ptr %9) #4
  ret i32 %139
}