; Function Attrs: null_pointer_is_valid sspstrong uwtable
define internal fastcc range(i32 0, 39) i32 @dissect_s5066dts_management(ptr noundef %0, i32 noundef range(i32 6, 14) %1, ptr noundef %2, i32 noundef range(i32 0, 32) %3) unnamed_addr #0 {
  %5 = tail call zeroext i8 @tvb_get_uint8(ptr noundef %0, i32 noundef %1)
  %6 = and i8 %5, 15
  %7 = tail call zeroext i8 @tvb_get_uint8(ptr noundef %0, i32 noundef 3)
  %8 = add nsw i32 %3, -8
  %9 = load i32, ptr @hf_s5066dts_management_unused, align 4
  %10 = tail call ptr @proto_tree_add_item(ptr noundef %2, i32 noundef %9, ptr noundef %0, i32 noundef %1, i32 noundef 1, i32 noundef 0)
  %11 = load i32, ptr @hf_s5066dts_management_extended_message_flag, align 4
  %12 = tail call ptr @proto_tree_add_item(ptr noundef %2, i32 noundef %11, ptr noundef %0, i32 noundef %1, i32 noundef 1, i32 noundef 0)
  %13 = load i32, ptr @hf_s5066dts_management_message, align 4
  %14 = tail call ptr @proto_tree_add_item(ptr noundef %2, i32 noundef %13, ptr noundef %0, i32 noundef %1, i32 noundef 1, i32 noundef 0)
  %15 = load i32, ptr @hf_s5066dts_management_ack, align 4
  %16 = tail call ptr @proto_tree_add_item(ptr noundef %2, i32 noundef %15, ptr noundef %0, i32 noundef %1, i32 noundef 1, i32 noundef 0)
  %17 = add nuw nsw i32 %1, 1
  %18 = load i32, ptr @hf_s5066dts_management_management_frame_id, align 4
  %19 = tail call ptr @proto_tree_add_item(ptr noundef %2, i32 noundef %18, ptr noundef %0, i32 noundef %17, i32 noundef 1, i32 noundef 0)
  %20 = add nuw nsw i32 %1, 2
  %21 = icmp eq i8 %6, 7
  br i1 %21, label %22, label %29

22:                                               ; preds = %4
  %23 = load i32, ptr @hf_s5066dts_eow_hdr_drc_request_data_rate, align 4
  %24 = tail call ptr @proto_tree_add_item(ptr noundef %2, i32 noundef %23, ptr noundef %0, i32 noundef %20, i32 noundef 4, i32 noundef 0)
  %25 = add nuw nsw i32 %1, 6
  %26 = load i32, ptr @hf_s5066dts_eow_hdr_drc_request_interleaver_length, align 4
  %27 = tail call ptr @proto_tree_add_item(ptr noundef %2, i32 noundef %26, ptr noundef %0, i32 noundef %25, i32 noundef 2, i32 noundef 0)
  %28 = add nuw nsw i32 %1, 8
  br label %59

29:                                               ; preds = %4
  %.not = icmp eq i32 %8, 0
  br i1 %.not, label %59, label %30

30:                                               ; preds = %29
  %31 = icmp eq i8 %6, 15
  br i1 %31, label %32, label %55

32:                                               ; preds = %30
  %33 = load i32, ptr @ett_s5066dts_hftrp_token, align 4
  %34 = zext i8 %7 to i32
  %35 = tail call ptr @val_to_str_const(i32 noundef %34, ptr noundef nonnull @s5066dts_eow_hftrp_frame_control, ptr noundef nonnull @.str.260)
  %36 = tail call ptr (ptr, ptr, i32, i32, i32, ptr, ptr, ...) @proto_tree_add_subtree_format(ptr noundef %2, ptr noundef %0, i32 noundef %20, i32 noundef %8, i32 noundef %33, ptr noundef null, ptr noundef nonnull @.str.279, ptr noundef %35)
  %37 = load i32, ptr @hf_s5066dts_management_extended_message_hftrp_payload_size, align 4
  %38 = tail call ptr @proto_tree_add_item(ptr noundef %36, i32 noundef %37, ptr noundef %0, i32 noundef %20, i32 noundef 2, i32 noundef 0)
  %39 = add nuw nsw i32 %1, 4
  %40 = load i32, ptr @hf_s5066dts_management_extended_message_hftrp_ra, align 4
  %41 = tail call ptr @proto_tree_add_item(ptr noundef %36, i32 noundef %40, ptr noundef %0, i32 noundef %39, i32 noundef 4, i32 noundef 0)
  %42 = add nuw nsw i32 %1, 8
  %43 = load i32, ptr @hf_s5066dts_management_extended_message_hftrp_seq_id, align 4
  %44 = tail call ptr @proto_tree_add_item(ptr noundef %36, i32 noundef %43, ptr noundef %0, i32 noundef %42, i32 noundef 4, i32 noundef 0)
  %45 = add nuw nsw i32 %1, 12
  %46 = load i32, ptr @hf_s5066dts_management_extended_message_hftrp_gen_seq_id, align 4
  %47 = tail call ptr @proto_tree_add_item(ptr noundef %36, i32 noundef %46, ptr noundef %0, i32 noundef %45, i32 noundef 4, i32 noundef 0)
  %48 = or disjoint i32 %1, 16
  %49 = load i32, ptr @hf_s5066dts_management_extended_message_hftrp_new_successor_id, align 4
  %50 = tail call ptr @proto_tree_add_item(ptr noundef %36, i32 noundef %49, ptr noundef %0, i32 noundef %48, i32 noundef 4, i32 noundef 0)
  %51 = add nuw nsw i32 %1, 20
  %52 = load i32, ptr @hf_s5066dts_management_extended_message_hftrp_number_of_nodes, align 4
  %53 = tail call ptr @proto_tree_add_item(ptr noundef %36, i32 noundef %52, ptr noundef %0, i32 noundef %51, i32 noundef 2, i32 noundef 0)
  %54 = add nuw nsw i32 %1, 22
  br label %59

55:                                               ; preds = %30
  %56 = load i32, ptr @hf_s5066dts_management_extended_message, align 4
  %57 = tail call ptr @proto_tree_add_item(ptr noundef %2, i32 noundef %56, ptr noundef %0, i32 noundef %20, i32 noundef %8, i32 noundef 0)
  %58 = add nsw i32 %8, %20
  br label %59

59:                                               ; preds = %29, %55, %32, %22
  %.0 = phi i32 [ %28, %22 ], [ %54, %32 ], [ %58, %55 ], [ %20, %29 ]
  ret i32 %.0
}